; Function Attrs: nounwind uwtable
define internal fastcc range(i32 -1, 1) i32 @type_new_classmethod(ptr noundef nonnull readonly %0, ptr noundef %1) unnamed_addr #1 {
  %3 = getelementptr inbounds nuw i8, ptr %0, i64 168
  %4 = load i64, ptr %3, align 8, !tbaa !108
  %5 = and i64 %4, 2
  %.not.i16 = icmp eq i64 %5, 0
  br i1 %.not.i16, label %22, label %6

6:                                                ; preds = %2
  %7 = tail call align 8 ptr @llvm.threadlocal.address.p0(ptr align 8 @_Py_tss_tstate)
  %8 = load ptr, ptr %7, align 8, !tbaa !22
  %9 = getelementptr inbounds nuw i8, ptr %8, i64 16
  %10 = load ptr, ptr %9, align 8, !tbaa !24
  %11 = getelementptr i8, ptr %0, i64 360
  %.val.i.i.i = load ptr, ptr %11, align 8, !tbaa !4
  %12 = ptrtoint ptr %.val.i.i.i to i64
  %13 = add i64 %12, -1
  %14 = getelementptr inbounds nuw i8, ptr %10, i64 180064
  %15 = getelementptr [200 x %struct.managed_static_type_state], ptr %14, i64 0, i64 %13
  %16 = load ptr, ptr %15, align 8, !tbaa !20
  %17 = icmp eq ptr %16, %0
  %18 = icmp ugt i64 %13, 10
  %or.cond.i.i.i = or i1 %17, %18
  %19 = getelementptr inbounds nuw i8, ptr %10, i64 189680
  %20 = getelementptr [10 x %struct.managed_static_type_state], ptr %19, i64 0, i64 %13
  %.0.i.i.i = select i1 %or.cond.i.i.i, ptr %15, ptr %20
  %21 = getelementptr inbounds nuw i8, ptr %.0.i.i.i, i64 24
  br label %lookup_tp_dict.exit

22:                                               ; preds = %2
  %23 = getelementptr inbounds nuw i8, ptr %0, i64 264
  br label %lookup_tp_dict.exit

lookup_tp_dict.exit:                              ; preds = %6, %22
  %.0.in.i = phi ptr [ %21, %6 ], [ %23, %22 ]
  %.0.i = load ptr, ptr %.0.in.i, align 8, !tbaa !105
  %24 = tail call ptr @PyDict_GetItemWithError(ptr noundef %.0.i, ptr noundef %1) #24
  %25 = icmp eq ptr %24, null
  br i1 %25, label %26, label %28

26:                                               ; preds = %lookup_tp_dict.exit
  %27 = tail call ptr @PyErr_Occurred() #24
  %.not14 = icmp ne ptr %27, null
  %. = sext i1 %.not14 to i32
  br label %40

28:                                               ; preds = %lookup_tp_dict.exit
  %29 = getelementptr i8, ptr %24, i64 8
  %.val = load ptr, ptr %29, align 8, !tbaa !116
  %.not = icmp eq ptr %.val, @PyFunction_Type
  br i1 %.not, label %30, label %40

30:                                               ; preds = %28
  %31 = tail call ptr @PyClassMethod_New(ptr noundef nonnull %24) #24
  %32 = icmp eq ptr %31, null
  br i1 %32, label %40, label %33

33:                                               ; preds = %30
  %34 = tail call i32 @PyDict_SetItem(ptr noundef %.0.i, ptr noundef %1, ptr noundef nonnull %31) #24
  %35 = load i32, ptr %31, align 8, !tbaa !102
  %.not.i = icmp sgt i32 %35, -1
  br i1 %.not.i, label %36, label %Py_DECREF.exit

36:                                               ; preds = %33
  %37 = add nsw i32 %35, -1
  store i32 %37, ptr %31, align 8, !tbaa !102
  %38 = icmp eq i32 %37, 0
  br i1 %38, label %39, label %Py_DECREF.exit

39:                                               ; preds = %36
  tail call void @_Py_Dealloc(ptr noundef nonnull %31) #24
  br label %Py_DECREF.exit

Py_DECREF.exit:                                   ; preds = %33, %36, %39
  %.lobit = ashr i32 %34, 31
  br label %40

40:                                               ; preds = %30, %Py_DECREF.exit, %28, %26
  %.0 = phi i32 [ %., %26 ], [ 0, %28 ], [ -1, %30 ], [ %.lobit, %Py_DECREF.exit ]
  ret i32 %.0
}